target datalayout = "e-m:e-p270:32:32-p271:32:32-p272:64:64-i64:64-i128:128-f80:128-n8:16:32:64-S128"
target triple = "x86_64-pc-linux-gnu"

%struct.SHA3State = type { ptr, ptr, ptr, ptr, ptr, ptr }

; Function Attrs: inlinehint nounwind uwtable
define internal ptr @sha3_get_state(ptr noundef %0) #3 {
  %2 = alloca ptr, align 8
  %3 = alloca ptr, align 8
  store ptr %0, ptr %2, align 8, !tbaa !3
  call void @llvm.lifetime.start.p0(i64 8, ptr %3) #7
  %4 = load ptr, ptr %2, align 8, !tbaa !3
  %5 = call ptr @PyModule_GetState(ptr noundef %4)
  store ptr %5, ptr %3, align 8, !tbaa !8
  %6 = load ptr, ptr %3, align 8, !tbaa !8
  call void @llvm.lifetime.end.p0(i64 8, ptr %3) #7
  ret ptr %6
}

; Function Attrs: nounwind uwtable
define internal i32 @_sha3_traverse(ptr noundef %0, ptr noundef %1, ptr noundef %2) #0 {
  %4 = alloca i32, align 4
  %5 = alloca ptr, align 8
  %6 = alloca ptr, align 8
  %7 = alloca ptr, align 8
  %8 = alloca ptr, align 8
  %9 = alloca i32, align 4
  %10 = alloca i32, align 4
  %11 = alloca i32, align 4
  %12 = alloca i32, align 4
  %13 = alloca i32, align 4
  %14 = alloca i32, align 4
  %15 = alloca i32, align 4
  store ptr %0, ptr %5, align 8, !tbaa !3
  store ptr %1, ptr %6, align 8, !tbaa !8
  store ptr %2, ptr %7, align 8, !tbaa !8
  call void @llvm.lifetime.start.p0(i64 8, ptr %8) #7
  %16 = load ptr, ptr %5, align 8, !tbaa !3
  %17 = call ptr @sha3_get_state(ptr noundef %16)
  store ptr %17, ptr %8, align 8, !tbaa !8
  br label %18

18:                                               ; preds = %3
  %19 = load ptr, ptr %8, align 8, !tbaa !8
  %20 = getelementptr inbounds nuw %struct.SHA3State, ptr %19, i32 0, i32 0
  %21 = load ptr, ptr %20, align 8, !tbaa !9
  %22 = icmp ne ptr %21, null
  br i1 %22, label %23, label %38

23:                                               ; preds = %18
  call void @llvm.lifetime.start.p0(i64 4, ptr %9) #7
  %24 = load ptr, ptr %6, align 8, !tbaa !8
  %25 = load ptr, ptr %8, align 8, !tbaa !8
  %26 = getelementptr inbounds nuw %struct.SHA3State, ptr %25, i32 0, i32 0
  %27 = load ptr, ptr %26, align 8, !tbaa !9
  %28 = load ptr, ptr %7, align 8, !tbaa !8
  %29 = call i32 %24(ptr noundef %27, ptr noundef %28)
  store i32 %29, ptr %9, align 4, !tbaa !12
  %30 = load i32, ptr %9, align 4, !tbaa !12
  %31 = icmp ne i32 %30, 0
  br i1 %31, label %32, label %34

32:                                               ; preds = %23
  %33 = load i32, ptr %9, align 4, !tbaa !12
  store i32 %33, ptr %4, align 4
  store i32 1, ptr %10, align 4
  br label %35

34:                                               ; preds = %23
  store i32 0, ptr %10, align 4
  br label %35

35:                                               ; preds = %34, %32
  call void @llvm.lifetime.end.p0(i64 4, ptr %9) #7
  %36 = load i32, ptr %10, align 4
  switch i32 %36, label %156 [
    i32 0, label %37
  ]

37:                                               ; preds = %35
  br label %38

38:                                               ; preds = %37, %18
  br label %39

39:                                               ; preds = %38
  br label %40

40:                                               ; preds = %39
  br label %41

41:                                               ; preds = %40
  %42 = load ptr, ptr %8, align 8, !tbaa !8
  %43 = getelementptr inbounds nuw %struct.SHA3State, ptr %42, i32 0, i32 1
  %44 = load ptr, ptr %43, align 8, !tbaa !14
  %45 = icmp ne ptr %44, null
  br i1 %45, label %46, label %61

46:                                               ; preds = %41
  call void @llvm.lifetime.start.p0(i64 4, ptr %11) #7
  %47 = load ptr, ptr %6, align 8, !tbaa !8
  %48 = load ptr, ptr %8, align 8, !tbaa !8
  %49 = getelementptr inbounds nuw %struct.SHA3State, ptr %48, i32 0, i32 1
  %50 = load ptr, ptr %49, align 8, !tbaa !14
  %51 = load ptr, ptr %7, align 8, !tbaa !8
  %52 = call i32 %47(ptr noundef %50, ptr noundef %51)
  store i32 %52, ptr %11, align 4, !tbaa !12
  %53 = load i32, ptr %11, align 4, !tbaa !12
  %54 = icmp ne i32 %53, 0
  br i1 %54, label %55, label %57

55:                                               ; preds = %46
  %56 = load i32, ptr %11, align 4, !tbaa !12
  store i32 %56, ptr %4, align 4
  store i32 1, ptr %10, align 4
  br label %58

57:                                               ; preds = %46
  store i32 0, ptr %10, align 4
  br label %58

58:                                               ; preds = %57, %55
  call void @llvm.lifetime.end.p0(i64 4, ptr %11) #7
  %59 = load i32, ptr %10, align 4
  switch i32 %59, label %156 [
    i32 0, label %60
  ]

60:                                               ; preds = %58
  br label %61

61:                                               ; preds = %60, %41
  br label %62

62:                                               ; preds = %61
  br label %63

63:                                               ; preds = %62
  br label %64

64:                                               ; preds = %63
  %65 = load ptr, ptr %8, align 8, !tbaa !8
  %66 = getelementptr inbounds nuw %struct.SHA3State, ptr %65, i32 0, i32 2
  %67 = load ptr, ptr %66, align 8, !tbaa !15
  %68 = icmp ne ptr %67, null
  br i1 %68, label %69, label %84

69:                                               ; preds = %64
  call void @llvm.lifetime.start.p0(i64 4, ptr %12) #7
  %70 = load ptr, ptr %6, align 8, !tbaa !8
  %71 = load ptr, ptr %8, align 8, !tbaa !8
  %72 = getelementptr inbounds nuw %struct.SHA3State, ptr %71, i32 0, i32 2
  %73 = load ptr, ptr %72, align 8, !tbaa !15
  %74 = load ptr, ptr %7, align 8, !tbaa !8
  %75 = call i32 %70(ptr noundef %73, ptr noundef %74)
  store i32 %75, ptr %12, align 4, !tbaa !12
  %76 = load i32, ptr %12, align 4, !tbaa !12
  %77 = icmp ne i32 %76, 0
  br i1 %77, label %78, label %80

78:                                               ; preds = %69
  %79 = load i32, ptr %12, align 4, !tbaa !12
  store i32 %79, ptr %4, align 4
  store i32 1, ptr %10, align 4
  br label %81

80:                                               ; preds = %69
  store i32 0, ptr %10, align 4
  br label %81

81:                                               ; preds = %80, %78
  call void @llvm.lifetime.end.p0(i64 4, ptr %12) #7
  %82 = load i32, ptr %10, align 4
  switch i32 %82, label %156 [
    i32 0, label %83
  ]

83:                                               ; preds = %81
  br label %84

84:                                               ; preds = %83, %64
  br label %85

85:                                               ; preds = %84
  br label %86

86:                                               ; preds = %85
  br label %87

87:                                               ; preds = %86
  %88 = load ptr, ptr %8, align 8, !tbaa !8
  %89 = getelementptr inbounds nuw %struct.SHA3State, ptr %88, i32 0, i32 3
  %90 = load ptr, ptr %89, align 8, !tbaa !16
  %91 = icmp ne ptr %90, null
  br i1 %91, label %92, label %107

92:                                               ; preds = %87
  call void @llvm.lifetime.start.p0(i64 4, ptr %13) #7
  %93 = load ptr, ptr %6, align 8, !tbaa !8
  %94 = load ptr, ptr %8, align 8, !tbaa !8
  %95 = getelementptr inbounds nuw %struct.SHA3State, ptr %94, i32 0, i32 3
  %96 = load ptr, ptr %95, align 8, !tbaa !16
  %97 = load ptr, ptr %7, align 8, !tbaa !8
  %98 = call i32 %93(ptr noundef %96, ptr noundef %97)
  store i32 %98, ptr %13, align 4, !tbaa !12
  %99 = load i32, ptr %13, align 4, !tbaa !12
  %100 = icmp ne i32 %99, 0
  br i1 %100, label %101, label %103

101:                                              ; preds = %92
  %102 = load i32, ptr %13, align 4, !tbaa !12
  store i32 %102, ptr %4, align 4
  store i32 1, ptr %10, align 4
  br label %104

103:                                              ; preds = %92
  store i32 0, ptr %10, align 4
  br label %104

104:                                              ; preds = %103, %101
  call void @llvm.lifetime.end.p0(i64 4, ptr %13) #7
  %105 = load i32, ptr %10, align 4
  switch i32 %105, label %156 [
    i32 0, label %106
  ]

106:                                              ; preds = %104
  br label %107

107:                                              ; preds = %106, %87
  br label %108

108:                                              ; preds = %107
  br label %109

109:                                              ; preds = %108
  br label %110

110:                                              ; preds = %109
  %111 = load ptr, ptr %8, align 8, !tbaa !8
  %112 = getelementptr inbounds nuw %struct.SHA3State, ptr %111, i32 0, i32 4
  %113 = load ptr, ptr %112, align 8, !tbaa !17
  %114 = icmp ne ptr %113, null
  br i1 %114, label %115, label %130

115:                                              ; preds = %110
  call void @llvm.lifetime.start.p0(i64 4, ptr %14) #7
  %116 = load ptr, ptr %6, align 8, !tbaa !8
  %117 = load ptr, ptr %8, align 8, !tbaa !8
  %118 = getelementptr inbounds nuw %struct.SHA3State, ptr %117, i32 0, i32 4
  %119 = load ptr, ptr %118, align 8, !tbaa !17
  %120 = load ptr, ptr %7, align 8, !tbaa !8
  %121 = call i32 %116(ptr noundef %119, ptr noundef %120)
  store i32 %121, ptr %14, align 4, !tbaa !12
  %122 = load i32, ptr %14, align 4, !tbaa !12
  %123 = icmp ne i32 %122, 0
  br i1 %123, label %124, label %126

124:                                              ; preds = %115
  %125 = load i32, ptr %14, align 4, !tbaa !12
  store i32 %125, ptr %4, align 4
  store i32 1, ptr %10, align 4
  br label %127

126:                                              ; preds = %115
  store i32 0, ptr %10, align 4
  br label %127

127:                                              ; preds = %126, %124
  call void @llvm.lifetime.end.p0(i64 4, ptr %14) #7
  %128 = load i32, ptr %10, align 4
  switch i32 %128, label %156 [
    i32 0, label %129
  ]

129:                                              ; preds = %127
  br label %130

130:                                              ; preds = %129, %110
  br label %131

131:                                              ; preds = %130
  br label %132

132:                                              ; preds = %131
  br label %133

133:                                              ; preds = %132
  %134 = load ptr, ptr %8, align 8, !tbaa !8
  %135 = getelementptr inbounds nuw %struct.SHA3State, ptr %134, i32 0, i32 5
  %136 = load ptr, ptr %135, align 8, !tbaa !18
  %137 = icmp ne ptr %136, null
  br i1 %137, label %138, label %153

138:                                              ; preds = %133
  call void @llvm.lifetime.start.p0(i64 4, ptr %15) #7
  %139 = load ptr, ptr %6, align 8, !tbaa !8
  %140 = load ptr, ptr %8, align 8, !tbaa !8
  %141 = getelementptr inbounds nuw %struct.SHA3State, ptr %140, i32 0, i32 5
  %142 = load ptr, ptr %141, align 8, !tbaa !18
  %143 = load ptr, ptr %7, align 8, !tbaa !8
  %144 = call i32 %139(ptr noundef %142, ptr noundef %143)
  store i32 %144, ptr %15, align 4, !tbaa !12
  %145 = load i32, ptr %15, align 4, !tbaa !12
  %146 = icmp ne i32 %145, 0
  br i1 %146, label %147, label %149

147:                                              ; preds = %138
  %148 = load i32, ptr %15, align 4, !tbaa !12
  store i32 %148, ptr %4, align 4
  store i32 1, ptr %10, align 4
  br label %150

149:                                              ; preds = %138
  store i32 0, ptr %10, align 4
  br label %150

150:                                              ; preds = %149, %147
  call void @llvm.lifetime.end.p0(i64 4, ptr %15) #7
  %151 = load i32, ptr %10, align 4
  switch i32 %151, label %156 [
    i32 0, label %152
  ]

152:                                              ; preds = %150
  br label %153

153:                                              ; preds = %152, %133
  br label %154

154:                                              ; preds = %153
  br label %155

155:                                              ; preds = %154
  store i32 0, ptr %4, align 4
  store i32 1, ptr %10, align 4
  br label %156

156:                                              ; preds = %155, %150, %127, %104, %81, %58, %35
  call void @llvm.lifetime.end.p0(i64 8, ptr %8) #7
  %157 = load i32, ptr %4, align 4
  ret i32 %157
}